target datalayout = "e-m:e-p270:32:32-p271:32:32-p272:64:64-i64:64-i128:128-f80:128-n8:16:32:64-S128"
target triple = "x86_64-pc-linux-gnu"

%struct._zend_multibyte_functions = type { ptr, ptr, ptr, ptr, ptr, ptr, ptr, ptr, ptr }
%struct._zend_stack = type { i32, i32, i32, ptr }
%struct._zend_compiler_globals = type { %struct._zend_stack, ptr, ptr, i32, ptr, ptr, ptr, ptr, i8, i8, i8, i8, i8, %struct._zend_llist, ptr, i8, i8, i8, i8, ptr, i32, i32, %struct._zend_oparray_context, %struct._zend_file_context, ptr, %struct._zend_array, ptr, i64, i8, i8, i8, ptr, ptr, %struct._zend_stack, ptr, i32, ptr, ptr, i64, i64, ptr, ptr, ptr, ptr, i32, %struct._zend_stack }
%struct._zend_llist = type { ptr, ptr, i64, i64, ptr, i8, ptr }
%struct._zend_oparray_context = type { i32, i32, i32, i32, i32, i32, i32, ptr, ptr, i8 }
%struct._zend_file_context = type { %struct._zend_declarables, ptr, i8, i8, ptr, ptr, ptr, %struct._zend_array }
%struct._zend_declarables = type { i64 }
%struct._zend_array = type { %struct._zend_refcounted_h, %union.anon.0, i32, %union.anon.1, i32, i32, i32, i32, i64, ptr }
%struct._zend_refcounted_h = type { i32, %union.anon }
%union.anon = type { i32 }
%union.anon.0 = type { i32 }
%union.anon.1 = type { ptr }

@compiler_globals = external global %struct._zend_compiler_globals, align 8

; Function Attrs: nounwind uwtable
define i32 @zend_multibyte_parse_encoding_list(ptr noundef %0, i64 noundef %1, ptr noundef %2, ptr noundef %3, i1 noundef zeroext %4) #0 {
  %6 = alloca ptr, align 8
  %7 = alloca i64, align 8
  %8 = alloca ptr, align 8
  %9 = alloca ptr, align 8
  %10 = alloca i8, align 1
  store ptr %0, ptr %6, align 8
  store i64 %1, ptr %7, align 8
  store ptr %2, ptr %8, align 8
  store ptr %3, ptr %9, align 8
  %11 = zext i1 %4 to i8
  store i8 %11, ptr %10, align 1
  %12 = load ptr, ptr getelementptr inbounds (%struct._zend_multibyte_functions, ptr @multibyte_functions, i32 0, i32 6), align 8
  %13 = load ptr, ptr %6, align 8
  %14 = load i64, ptr %7, align 8
  %15 = load ptr, ptr %8, align 8
  %16 = load ptr, ptr %9, align 8
  %17 = load i8, ptr %10, align 1
  %18 = trunc i8 %17 to i1
  %19 = call i32 %12(ptr noundef %13, i64 noundef %14, ptr noundef %15, ptr noundef %16, i1 noundef zeroext %18)
  ret i32 %19
}

; Function Attrs: nounwind uwtable
define i32 @zend_multibyte_set_script_encoding(ptr noundef %0, i64 noundef %1) #0 {
  %3 = alloca ptr, align 8
  %4 = alloca i64, align 8
  store ptr %0, ptr %3, align 8
  store i64 %1, ptr %4, align 8
  %5 = load ptr, ptr getelementptr inbounds (%struct._zend_compiler_globals, ptr @compiler_globals, i32 0, i32 26), align 8
  %6 = icmp ne ptr %5, null
  br i1 %6, label %7, label %9

7:                                                ; preds = %2
  %8 = load ptr, ptr getelementptr inbounds (%struct._zend_compiler_globals, ptr @compiler_globals, i32 0, i32 26), align 8
  call void @free(ptr noundef %8) #7
  br label %9

9:                                                ; preds = %7, %2
  %10 = load ptr, ptr %3, align 8
  store ptr %10, ptr getelementptr inbounds (%struct._zend_compiler_globals, ptr @compiler_globals, i32 0, i32 26), align 8
  %11 = load i64, ptr %4, align 8
  store i64 %11, ptr getelementptr inbounds (%struct._zend_compiler_globals, ptr @compiler_globals, i32 0, i32 27), align 8
  ret i32 0
}

; Function Attrs: nounwind uwtable
define i32 @zend_multibyte_set_script_encoding_by_string(ptr noundef %0, i64 noundef %1) #0 {
  %3 = alloca i32, align 4
  %4 = alloca ptr, align 8
  %5 = alloca i64, align 8
  %6 = alloca ptr, align 8
  %7 = alloca i64, align 8
  store ptr %0, ptr %4, align 8
  store i64 %1, ptr %5, align 8
  store ptr null, ptr %6, align 8
  store i64 0, ptr %7, align 8
  %8 = load ptr, ptr %4, align 8
  %9 = icmp ne ptr %8, null
  br i1 %9, label %12, label %10

10:                                               ; preds = %2
  %11 = call i32 @zend_multibyte_set_script_encoding(ptr noundef null, i64 noundef 0)
  store i32 0, ptr %3, align 4
  br label %30

12:                                               ; preds = %2
  %13 = load ptr, ptr %4, align 8
  %14 = load i64, ptr %5, align 8
  %15 = call i32 @zend_multibyte_parse_encoding_list(ptr noundef %13, i64 noundef %14, ptr noundef %6, ptr noundef %7, i1 noundef zeroext true)
  %16 = icmp eq i32 -1, %15
  br i1 %16, label %17, label %18

17:                                               ; preds = %12
  store i32 -1, ptr %3, align 4
  br label %30

18:                                               ; preds = %12
  %19 = load i64, ptr %7, align 8
  %20 = icmp eq i64 %19, 0
  br i1 %20, label %21, label %23

21:                                               ; preds = %18
  %22 = load ptr, ptr %6, align 8
  call void @free(ptr noundef %22) #7
  store i32 -1, ptr %3, align 4
  br label %30

23:                                               ; preds = %18
  %24 = load ptr, ptr %6, align 8
  %25 = load i64, ptr %7, align 8
  %26 = call i32 @zend_multibyte_set_script_encoding(ptr noundef %24, i64 noundef %25)
  %27 = icmp eq i32 -1, %26
  br i1 %27, label %28, label %29

28:                                               ; preds = %23
  store i32 -1, ptr %3, align 4
  br label %30

29:                                               ; preds = %23
  store i32 0, ptr %3, align 4
  br label %30

30:                                               ; preds = %29, %28, %21, %17, %10
  %31 = load i32, ptr %3, align 4
  ret i32 %31
}