; Function Attrs: nounwind uwtable
define noundef i32 @zend_multibyte_set_script_encoding_by_string(ptr noundef %0, i64 noundef %1) local_unnamed_addr #0 {
  %3 = alloca ptr, align 8
  %4 = alloca i64, align 8
  store ptr null, ptr %3, align 8
  store i64 0, ptr %4, align 8
  %.not = icmp eq ptr %0, null
  br i1 %.not, label %5, label %8

5:                                                ; preds = %2
  %6 = load ptr, ptr getelementptr inbounds (%struct._zend_compiler_globals, ptr @compiler_globals, i64 0, i32 26), align 8
  %.not.i = icmp eq ptr %6, null
  br i1 %.not.i, label %zend_multibyte_set_script_encoding.exit, label %7

7:                                                ; preds = %5
  tail call void @free(ptr noundef nonnull %6) #12
  br label %zend_multibyte_set_script_encoding.exit

zend_multibyte_set_script_encoding.exit:          ; preds = %5, %7
  tail call void @llvm.memset.p0.i64(ptr noundef nonnull align 8 dereferenceable(16) getelementptr inbounds (%struct._zend_compiler_globals, ptr @compiler_globals, i64 0, i32 26), i8 0, i64 16, i1 false)
  br label %20

8:                                                ; preds = %2
  %9 = load ptr, ptr getelementptr inbounds (%struct._zend_multibyte_functions, ptr @multibyte_functions, i64 0, i32 6), align 8
  %10 = call i32 %9(ptr noundef nonnull %0, i64 noundef %1, ptr noundef nonnull %3, ptr noundef nonnull %4, i1 noundef zeroext true) #12
  %11 = icmp eq i32 %10, -1
  br i1 %11, label %20, label %12

12:                                               ; preds = %8
  %13 = load i64, ptr %4, align 8
  %14 = icmp eq i64 %13, 0
  %15 = load ptr, ptr %3, align 8
  br i1 %14, label %16, label %17

16:                                               ; preds = %12
  call void @free(ptr noundef %15) #12
  br label %20

17:                                               ; preds = %12
  %18 = load ptr, ptr getelementptr inbounds (%struct._zend_compiler_globals, ptr @compiler_globals, i64 0, i32 26), align 8
  %.not.i5 = icmp eq ptr %18, null
  br i1 %.not.i5, label %zend_multibyte_set_script_encoding.exit6, label %19

19:                                               ; preds = %17
  call void @free(ptr noundef nonnull %18) #12
  br label %zend_multibyte_set_script_encoding.exit6

zend_multibyte_set_script_encoding.exit6:         ; preds = %17, %19
  store ptr %15, ptr getelementptr inbounds (%struct._zend_compiler_globals, ptr @compiler_globals, i64 0, i32 26), align 8
  store i64 %13, ptr getelementptr inbounds (%struct._zend_compiler_globals, ptr @compiler_globals, i64 0, i32 27), align 8
  br label %20

20:                                               ; preds = %8, %zend_multibyte_set_script_encoding.exit6, %16, %zend_multibyte_set_script_encoding.exit
  %.0 = phi i32 [ -1, %16 ], [ 0, %zend_multibyte_set_script_encoding.exit6 ], [ 0, %zend_multibyte_set_script_encoding.exit ], [ -1, %8 ]
  ret i32 %.0
}